target datalayout = "e-m:e-p270:32:32-p271:32:32-p272:64:64-i64:64-i128:128-f80:128-n8:16:32:64-S128"
target triple = "x86_64-pc-linux-gnu"

%struct.CPpmd7z_RangeDec = type { %struct.IPpmd7_RangeDec, i32, i32, ptr }
%struct.IPpmd7_RangeDec = type { ptr, ptr, ptr }

; Function Attrs: nounwind uwtable
define internal i32 @Range_GetThreshold(ptr noundef %0, i32 noundef %1) #0 {
  %3 = alloca ptr, align 8
  %4 = alloca i32, align 4
  %5 = alloca ptr, align 8
  store ptr %0, ptr %3, align 8
  store i32 %1, ptr %4, align 4
  %6 = load ptr, ptr %3, align 8
  store ptr %6, ptr %5, align 8
  %7 = load ptr, ptr %5, align 8
  %8 = getelementptr inbounds %struct.CPpmd7z_RangeDec, ptr %7, i32 0, i32 2
  %9 = load i32, ptr %8, align 4
  %10 = load i32, ptr %4, align 4
  %11 = load ptr, ptr %5, align 8
  %12 = getelementptr inbounds %struct.CPpmd7z_RangeDec, ptr %11, i32 0, i32 1
  %13 = load i32, ptr %12, align 8
  %14 = udiv i32 %13, %10
  store i32 %14, ptr %12, align 8
  %15 = udiv i32 %9, %14
  ret i32 %15
}