; Function Attrs: mustprogress nofree norecurse nosync nounwind willreturn memory(argmem: readwrite) uwtable
define internal i32 @Range_GetThreshold(ptr nocapture noundef %0, i32 noundef %1) #2 {
  %3 = getelementptr inbounds i8, ptr %0, i64 28
  %4 = load i32, ptr %3, align 4
  %5 = getelementptr inbounds i8, ptr %0, i64 24
  %6 = load i32, ptr %5, align 8
  %7 = udiv i32 %6, %1
  store i32 %7, ptr %5, align 8
  %8 = udiv i32 %4, %7
  ret i32 %8
}